target datalayout = "e-m:e-p270:32:32-p271:32:32-p272:64:64-i64:64-i128:128-f80:128-n8:16:32:64-S128"
target triple = "x86_64-pc-linux-gnu"

%struct.Vec_Wrd_t_ = type { i32, i32, ptr }

; Function Attrs: nounwind uwtable
define internal ptr @Vec_WrdEntryP(ptr noundef %0, i32 noundef %1) #0 {
  %3 = alloca ptr, align 8
  %4 = alloca i32, align 4
  store ptr %0, ptr %3, align 8
  store i32 %1, ptr %4, align 4
  %5 = load ptr, ptr %3, align 8
  %6 = getelementptr inbounds %struct.Vec_Wrd_t_, ptr %5, i32 0, i32 2
  %7 = load ptr, ptr %6, align 8
  %8 = load i32, ptr %4, align 4
  %9 = sext i32 %8 to i64
  %10 = getelementptr inbounds i64, ptr %7, i64 %9
  ret ptr %10
}

; Function Attrs: nounwind uwtable
define internal i32 @Abc_Truth6WordNum(i32 noundef %0) #0 {
  %2 = alloca i32, align 4
  store i32 %0, ptr %2, align 4
  %3 = load i32, ptr %2, align 4
  %4 = icmp sle i32 %3, 6
  br i1 %4, label %5, label %6

5:                                                ; preds = %1
  br label %10

6:                                                ; preds = %1
  %7 = load i32, ptr %2, align 4
  %8 = sub nsw i32 %7, 6
  %9 = shl i32 1, %8
  br label %10

10:                                               ; preds = %6, %5
  %11 = phi i32 [ 1, %5 ], [ %9, %6 ]
  ret i32 %11
}

; Function Attrs: nounwind uwtable
define i32 @Gia_ManCountIsop(ptr noundef %0, i32 noundef %1, i32 noundef %2) #0 {
  %4 = alloca ptr, align 8
  %5 = alloca i32, align 4
  %6 = alloca i32, align 4
  %7 = alloca i32, align 4
  %8 = alloca [2 x ptr], align 16
  %9 = alloca i32, align 4
  store ptr %0, ptr %4, align 8
  store i32 %1, ptr %5, align 4
  store i32 %2, ptr %6, align 4
  %10 = load i32, ptr %5, align 4
  %11 = call i32 @Abc_Truth6WordNum(i32 noundef %10)
  store i32 %11, ptr %7, align 4
  %12 = getelementptr inbounds [2 x ptr], ptr %8, i64 0, i64 0
  %13 = load ptr, ptr %4, align 8
  %14 = load i32, ptr %7, align 4
  %15 = mul nsw i32 0, %14
  %16 = call ptr @Vec_WrdEntryP(ptr noundef %13, i32 noundef %15)
  store ptr %16, ptr %12, align 8
  %17 = getelementptr inbounds ptr, ptr %12, i64 1
  %18 = load ptr, ptr %4, align 8
  %19 = load i32, ptr %7, align 4
  %20 = mul nsw i32 1, %19
  %21 = call ptr @Vec_WrdEntryP(ptr noundef %18, i32 noundef %20)
  store ptr %21, ptr %17, align 8
  %22 = getelementptr inbounds [2 x ptr], ptr %8, i64 0, i64 0
  %23 = load ptr, ptr %22, align 16
  %24 = getelementptr inbounds [2 x ptr], ptr %8, i64 0, i64 1
  %25 = load ptr, ptr %24, align 8
  %26 = load i32, ptr %5, align 4
  %27 = call i32 @Kit_IsopNodeNum(ptr noundef %23, ptr noundef %25, i32 noundef %26, ptr noundef null)
  store i32 %27, ptr %9, align 4
  %28 = load i32, ptr %9, align 4
  ret i32 %28
}