; Function Attrs: nounwind uwtable
define i32 @Gia_ManCountIsop(ptr noundef readonly captures(none) %0, i32 noundef %1, i32 noundef %2) local_unnamed_addr #2 {
  %4 = icmp slt i32 %1, 7
  %5 = add nsw i32 %1, -6
  %6 = shl nuw i32 1, %5
  %7 = select i1 %4, i32 1, i32 %6
  %8 = getelementptr i8, ptr %0, i64 8
  %.val6 = load ptr, ptr %8, align 8
  %9 = sext i32 %7 to i64
  %10 = getelementptr inbounds i64, ptr %.val6, i64 %9
  %11 = tail call i32 @Kit_IsopNodeNum(ptr noundef %.val6, ptr noundef nonnull %10, i32 noundef %1, ptr noundef null) #14
  ret i32 %11
}